target datalayout = "e-m:e-p270:32:32-p271:32:32-p272:64:64-i64:64-i128:128-f80:128-n8:16:32:64-S128"
target triple = "x86_64-pc-linux-gnu"

%struct.forward = type { %struct.slurm_node_alias_addrs_t, i16, i16, ptr, i32, i16, i16 }
%struct.slurm_node_alias_addrs_t = type { i64, ptr, ptr, i32, ptr }
%struct.sockaddr_storage = type { i16, [118 x i8], i64 }
%struct.slurm_msg = type { %struct.sockaddr_storage, ptr, i32, i32, i32, i8, i32, i8, i32, ptr, ptr, i32, ptr, ptr, i16, i8, i16, i16, %struct.forward, ptr, %struct.sockaddr_storage, ptr }
%struct.node_info_single_msg = type { ptr, i16 }

; Function Attrs: nounwind uwtable
define internal void @_pack_node_info_single_msg(ptr noundef %0, ptr noundef %1) #0 {
  %3 = alloca ptr, align 8
  %4 = alloca ptr, align 8
  %5 = alloca ptr, align 8
  %6 = alloca i32, align 4
  store ptr %0, ptr %3, align 8
  store ptr %1, ptr %4, align 8
  call void @llvm.lifetime.start.p0(i64 8, ptr %5) #6
  %7 = load ptr, ptr %3, align 8
  %8 = getelementptr inbounds nuw %struct.slurm_msg, ptr %7, i32 0, i32 13
  %9 = load ptr, ptr %8, align 8
  store ptr %9, ptr %5, align 8
  br label %10

10:                                               ; preds = %2
  call void @llvm.lifetime.start.p0(i64 4, ptr %6) #6
  store i32 0, ptr %6, align 4
  %11 = load ptr, ptr %5, align 8
  %12 = getelementptr inbounds nuw %struct.node_info_single_msg, ptr %11, i32 0, i32 0
  %13 = load ptr, ptr %12, align 8
  %14 = icmp ne ptr %13, null
  br i1 %14, label %15, label %22

15:                                               ; preds = %10
  %16 = load ptr, ptr %5, align 8
  %17 = getelementptr inbounds nuw %struct.node_info_single_msg, ptr %16, i32 0, i32 0
  %18 = load ptr, ptr %17, align 8
  %19 = call i64 @strlen(ptr noundef %18) #7
  %20 = trunc i64 %19 to i32
  %21 = add i32 %20, 1
  store i32 %21, ptr %6, align 4
  br label %22

22:                                               ; preds = %15, %10
  %23 = load ptr, ptr %5, align 8
  %24 = getelementptr inbounds nuw %struct.node_info_single_msg, ptr %23, i32 0, i32 0
  %25 = load ptr, ptr %24, align 8
  %26 = load i32, ptr %6, align 4
  %27 = load ptr, ptr %4, align 8
  call void @packmem(ptr noundef %25, i32 noundef %26, ptr noundef %27)
  call void @llvm.lifetime.end.p0(i64 4, ptr %6) #6
  br label %28

28:                                               ; preds = %22
  br label %29

29:                                               ; preds = %28
  %30 = load ptr, ptr %5, align 8
  %31 = getelementptr inbounds nuw %struct.node_info_single_msg, ptr %30, i32 0, i32 1
  %32 = load i16, ptr %31, align 8
  %33 = load ptr, ptr %4, align 8
  call void @pack16(i16 noundef zeroext %32, ptr noundef %33)
  call void @llvm.lifetime.end.p0(i64 8, ptr %5) #6
  ret void
}