; Function Attrs: nounwind uwtable
define internal fastcc void @_pack_node_info_single_msg(ptr readonly captures(none) %.200.val, ptr noundef %0) unnamed_addr #0 {
  %2 = load ptr, ptr %.200.val, align 8
  %.not = icmp eq ptr %2, null
  br i1 %.not, label %7, label %3

3:                                                ; preds = %1
  %4 = tail call i64 @strlen(ptr noundef nonnull dereferenceable(1) %2) #8
  %5 = trunc i64 %4 to i32
  %6 = add i32 %5, 1
  br label %7

7:                                                ; preds = %3, %1
  %.0 = phi i32 [ %6, %3 ], [ 0, %1 ]
  tail call void @packmem(ptr noundef %2, i32 noundef %.0, ptr noundef %0) #7
  %8 = getelementptr inbounds nuw i8, ptr %.200.val, i64 8
  %9 = load i16, ptr %8, align 8
  tail call void @pack16(i16 noundef zeroext %9, ptr noundef %0) #7
  ret void
}